target datalayout = "e-m:e-p270:32:32-p271:32:32-p272:64:64-i64:64-i128:128-f80:128-n8:16:32:64-S128"
target triple = "x86_64-pc-linux-gnu"

%"class.llvm::cl::opt" = type { %"class.llvm::cl::Option", %"class.llvm::cl::opt_storage", %"class.llvm::cl::parser", %"class.std::function" }
%"class.llvm::cl::Option" = type { ptr, i16, i16, i16, i16, %"class.llvm::StringRef", %"class.llvm::StringRef", %"class.llvm::StringRef", %"class.llvm::SmallVector", %"class.llvm::SmallPtrSet" }
%"class.llvm::StringRef" = type { ptr, i64 }
%"class.llvm::SmallVector" = type { %"class.llvm::SmallVectorImpl", %"struct.llvm::SmallVectorStorage" }
%"class.llvm::SmallVectorImpl" = type { %"class.llvm::SmallVectorTemplateBase" }
%"class.llvm::SmallVectorTemplateBase" = type { %"class.llvm::SmallVectorTemplateCommon" }
%"class.llvm::SmallVectorTemplateCommon" = type { %"class.llvm::SmallVectorBase" }
%"class.llvm::SmallVectorBase" = type { ptr, i32, i32 }
%"struct.llvm::SmallVectorStorage" = type { [8 x i8] }
%"class.llvm::SmallPtrSet" = type { %"class.llvm::SmallPtrSetImpl.base", [1 x ptr] }
%"class.llvm::SmallPtrSetImpl.base" = type { %"class.llvm::SmallPtrSetImplBase.base" }
%"class.llvm::SmallPtrSetImplBase.base" = type <{ ptr, ptr, i32, i32, i32 }>
%"class.llvm::cl::opt_storage" = type { i32, [4 x i8], %"struct.llvm::cl::OptionValue" }
%"struct.llvm::cl::OptionValue" = type { %"struct.llvm::cl::OptionValueBase.base", [3 x i8] }
%"struct.llvm::cl::OptionValueBase.base" = type { %"class.llvm::cl::OptionValueCopy.base" }
%"class.llvm::cl::OptionValueCopy.base" = type <{ %"struct.llvm::cl::GenericOptionValue", i32, i8 }>
%"struct.llvm::cl::GenericOptionValue" = type { ptr }
%"class.llvm::cl::parser" = type { %"class.llvm::cl::basic_parser" }
%"class.llvm::cl::basic_parser" = type { %"class.llvm::cl::basic_parser_impl" }
%"class.llvm::cl::basic_parser_impl" = type { ptr }
%"class.std::function" = type { %"class.std::_Function_base", ptr }
%"class.std::_Function_base" = type { %"union.std::_Any_data", ptr }
%"union.std::_Any_data" = type { %"union.std::_Nocopy_types" }
%"union.std::_Nocopy_types" = type { { i64, i64 } }
%"class.std::optional.80" = type { %"struct.std::_Optional_base.81" }
%"struct.std::_Optional_base.81" = type { %"struct.std::_Optional_payload.83" }
%"struct.std::_Optional_payload.83" = type { %"struct.std::_Optional_payload.base.88", [7 x i8] }
%"struct.std::_Optional_payload.base.88" = type { %"struct.std::_Optional_payload_base.base.87" }
%"struct.std::_Optional_payload_base.base.87" = type { %"union.std::_Optional_payload_base<llvm::CostBenefitPair>::_Storage", i8 }
%"union.std::_Optional_payload_base<llvm::CostBenefitPair>::_Storage" = type { %"class.llvm::CostBenefitPair" }
%"class.llvm::CostBenefitPair" = type { %"class.llvm::APInt", %"class.llvm::APInt" }
%"class.llvm::APInt" = type <{ %union.anon.86, i32, [4 x i8] }>
%union.anon.86 = type { i64 }
%"class.llvm::function_ref.79" = type { ptr, i64 }
%"class.llvm::function_ref" = type { ptr, i64 }
%"class.(anonymous namespace)::InlineCostCallAnalyzer" = type { %"class.(anonymous namespace)::CallAnalyzer", i8, i32, i32, i32, ptr, %"class.llvm::DenseMap.115", i32, i32, i8, i8, i8, i32, i32, i32, i8, i8, [6 x i8], %"class.std::optional.80", i8, i32, i32, [4 x i8], %"class.llvm::DenseMap.118", %"class.(anonymous namespace)::InlineCostAnnotationWriter" }
%"class.(anonymous namespace)::CallAnalyzer" = type { ptr, ptr, %"class.llvm::function_ref", %"class.llvm::function_ref.79", ptr, ptr, ptr, ptr, ptr, i8, i8, i8, i8, i8, i8, i8, i8, i8, i64, i32, i32, %"class.llvm::DenseMap", %"class.llvm::DenseMap.97", %"class.llvm::DenseSet", %"class.llvm::DenseMap.103", %"class.llvm::SmallPtrSet.106", %"class.llvm::DenseMap.109", i8, i8, %"class.llvm::SmallPtrSet.112", i32, i32, i32, i32, i32, i32 }
%"class.llvm::DenseMap" = type <{ ptr, i32, i32, i32, [4 x i8] }>
%"class.llvm::DenseMap.97" = type <{ ptr, i32, i32, i32, [4 x i8] }>
%"class.llvm::DenseSet" = type { %"class.llvm::detail::DenseSetImpl" }
%"class.llvm::detail::DenseSetImpl" = type { %"class.llvm::DenseMap.100" }
%"class.llvm::DenseMap.100" = type <{ ptr, i32, i32, i32, [4 x i8] }>
%"class.llvm::DenseMap.103" = type <{ ptr, i32, i32, i32, [4 x i8] }>
%"class.llvm::SmallPtrSet.106" = type { %"class.llvm::SmallPtrSetImpl.base.108", [16 x ptr] }
%"class.llvm::SmallPtrSetImpl.base.108" = type { %"class.llvm::SmallPtrSetImplBase.base" }
%"class.llvm::DenseMap.109" = type <{ ptr, i32, i32, i32, [4 x i8] }>
%"class.llvm::SmallPtrSet.112" = type { %"class.llvm::SmallPtrSetImpl.base.114", [16 x ptr] }
%"class.llvm::SmallPtrSetImpl.base.114" = type { %"class.llvm::SmallPtrSetImplBase.base" }
%"class.llvm::DenseMap.115" = type <{ ptr, i32, i32, i32, [4 x i8] }>
%"class.llvm::DenseMap.118" = type <{ ptr, i32, i32, i32, [4 x i8] }>
%"class.(anonymous namespace)::InlineCostAnnotationWriter" = type { %"class.llvm::AssemblyAnnotationWriter", ptr }
%"class.llvm::AssemblyAnnotationWriter" = type { ptr }

@_ZL9InstrCost = internal global %"class.llvm::cl::opt" zeroinitializer, align 8

; Function Attrs: mustprogress nounwind uwtable
define linkonce_odr noundef nonnull align 8 dereferenceable(8) ptr @_ZSt3minIlERKT_S2_S2_(ptr noundef nonnull align 8 dereferenceable(8) %0, ptr noundef nonnull align 8 dereferenceable(8) %1) #1 comdat {
  %3 = alloca ptr, align 8
  %4 = alloca ptr, align 8
  %5 = alloca ptr, align 8
  store ptr %0, ptr %4, align 8
  store ptr %1, ptr %5, align 8
  %6 = load ptr, ptr %5, align 8
  %7 = load i64, ptr %6, align 8
  %8 = load ptr, ptr %4, align 8
  %9 = load i64, ptr %8, align 8
  %10 = icmp slt i64 %7, %9
  br i1 %10, label %11, label %13

11:                                               ; preds = %2
  %12 = load ptr, ptr %5, align 8
  store ptr %12, ptr %3, align 8
  br label %15

13:                                               ; preds = %2
  %14 = load ptr, ptr %4, align 8
  store ptr %14, ptr %3, align 8
  br label %15

15:                                               ; preds = %13, %11
  %16 = load ptr, ptr %3, align 8
  ret ptr %16
}

; Function Attrs: mustprogress nounwind uwtable
define linkonce_odr noundef nonnull align 8 dereferenceable(8) ptr @_ZSt3maxIlERKT_S2_S2_(ptr noundef nonnull align 8 dereferenceable(8) %0, ptr noundef nonnull align 8 dereferenceable(8) %1) #1 comdat {
  %3 = alloca ptr, align 8
  %4 = alloca ptr, align 8
  %5 = alloca ptr, align 8
  store ptr %0, ptr %4, align 8
  store ptr %1, ptr %5, align 8
  %6 = load ptr, ptr %4, align 8
  %7 = load i64, ptr %6, align 8
  %8 = load ptr, ptr %5, align 8
  %9 = load i64, ptr %8, align 8
  %10 = icmp slt i64 %7, %9
  br i1 %10, label %11, label %13

11:                                               ; preds = %2
  %12 = load ptr, ptr %5, align 8
  store ptr %12, ptr %3, align 8
  br label %15

13:                                               ; preds = %2
  %14 = load ptr, ptr %4, align 8
  store ptr %14, ptr %3, align 8
  br label %15

15:                                               ; preds = %13, %11
  %16 = load ptr, ptr %3, align 8
  ret ptr %16
}

; Function Attrs: mustprogress nounwind uwtable
define linkonce_odr noundef nonnull align 8 dereferenceable(8) ptr @_ZSt5clampIlERKT_S2_S2_S2_(ptr noundef nonnull align 8 dereferenceable(8) %0, ptr noundef nonnull align 8 dereferenceable(8) %1, ptr noundef nonnull align 8 dereferenceable(8) %2) #1 comdat {
  %4 = alloca ptr, align 8
  %5 = alloca ptr, align 8
  %6 = alloca ptr, align 8
  store ptr %0, ptr %4, align 8
  store ptr %1, ptr %5, align 8
  store ptr %2, ptr %6, align 8
  br label %7

7:                                                ; preds = %3
  br label %8

8:                                                ; preds = %7
  %9 = load ptr, ptr %4, align 8
  %10 = load ptr, ptr %5, align 8
  %11 = call noundef nonnull align 8 dereferenceable(8) ptr @_ZSt3maxIlERKT_S2_S2_(ptr noundef nonnull align 8 dereferenceable(8) %9, ptr noundef nonnull align 8 dereferenceable(8) %10)
  %12 = load ptr, ptr %6, align 8
  %13 = call noundef nonnull align 8 dereferenceable(8) ptr @_ZSt3minIlERKT_S2_S2_(ptr noundef nonnull align 8 dereferenceable(8) %11, ptr noundef nonnull align 8 dereferenceable(8) %12)
  ret ptr %13
}

; Function Attrs: mustprogress nounwind uwtable
define linkonce_odr hidden noundef i32 @_ZNK4llvm2cl11opt_storageIiLb0ELb0EE8getValueEv(ptr noundef nonnull align 8 dereferenceable(24) %0) #1 comdat align 2 {
  %2 = alloca ptr, align 8
  store ptr %0, ptr %2, align 8
  %3 = load ptr, ptr %2, align 8
  %4 = getelementptr inbounds nuw %"class.llvm::cl::opt_storage", ptr %3, i32 0, i32 0
  %5 = load i32, ptr %4, align 8
  ret i32 %5
}

; Function Attrs: mustprogress nounwind uwtable
define internal void @_ZN12_GLOBAL__N_122InlineCostCallAnalyzer7addCostEl(ptr noundef nonnull align 8 dereferenceable(768) %0, i64 noundef %1) #1 align 2 {
  %3 = alloca ptr, align 8
  %4 = alloca i64, align 8
  %5 = alloca i64, align 8
  %6 = alloca i64, align 8
  %7 = alloca i64, align 8
  %8 = alloca i64, align 8
  %9 = alloca i64, align 8
  store ptr %0, ptr %3, align 8
  store i64 %1, ptr %4, align 8
  %10 = load ptr, ptr %3, align 8
  store i64 -2147483648, ptr %5, align 8
  store i64 2147483647, ptr %6, align 8
  %11 = call noundef nonnull align 8 dereferenceable(8) ptr @_ZSt5clampIlERKT_S2_S2_S2_(ptr noundef nonnull align 8 dereferenceable(8) %4, ptr noundef nonnull align 8 dereferenceable(8) %5, ptr noundef nonnull align 8 dereferenceable(8) %6)
  %12 = load i64, ptr %11, align 8
  store i64 %12, ptr %4, align 8
  %13 = load i64, ptr %4, align 8
  %14 = getelementptr inbounds nuw %"class.(anonymous namespace)::InlineCostCallAnalyzer", ptr %10, i32 0, i32 12
  %15 = load i32, ptr %14, align 4
  %16 = sext i32 %15 to i64
  %17 = add nsw i64 %13, %16
  store i64 %17, ptr %7, align 8
  store i64 -2147483648, ptr %8, align 8
  store i64 2147483647, ptr %9, align 8
  %18 = call noundef nonnull align 8 dereferenceable(8) ptr @_ZSt5clampIlERKT_S2_S2_S2_(ptr noundef nonnull align 8 dereferenceable(8) %7, ptr noundef nonnull align 8 dereferenceable(8) %8, ptr noundef nonnull align 8 dereferenceable(8) %9)
  %19 = load i64, ptr %18, align 8
  %20 = trunc i64 %19 to i32
  %21 = getelementptr inbounds nuw %"class.(anonymous namespace)::InlineCostCallAnalyzer", ptr %10, i32 0, i32 12
  store i32 %20, ptr %21, align 4
  ret void
}

; Function Attrs: mustprogress nounwind uwtable
define linkonce_odr hidden noundef i32 @_ZNK4llvm2cl11opt_storageIiLb0ELb0EEcviEv(ptr noundef nonnull align 8 dereferenceable(24) %0) #1 comdat align 2 {
  %2 = alloca ptr, align 8
  store ptr %0, ptr %2, align 8
  %3 = load ptr, ptr %2, align 8
  %4 = call noundef i32 @_ZNK4llvm2cl11opt_storageIiLb0ELb0EE8getValueEv(ptr noundef nonnull align 8 dereferenceable(24) %3)
  ret i32 %4
}

; Function Attrs: mustprogress nounwind uwtable
define internal void @_ZN12_GLOBAL__N_122InlineCostCallAnalyzer23onLoadRelativeIntrinsicEv(ptr noundef nonnull align 8 dereferenceable(768) %0) unnamed_addr #1 align 2 {
  %2 = alloca ptr, align 8
  store ptr %0, ptr %2, align 8
  %3 = load ptr, ptr %2, align 8
  %4 = call noundef i32 @_ZNK4llvm2cl11opt_storageIiLb0ELb0EEcviEv(ptr noundef nonnull align 8 dereferenceable(24) getelementptr inbounds (i8, ptr @_ZL9InstrCost, i64 128))
  %5 = mul nsw i32 3, %4
  %6 = sext i32 %5 to i64
  call void @_ZN12_GLOBAL__N_122InlineCostCallAnalyzer7addCostEl(ptr noundef nonnull align 8 dereferenceable(768) %3, i64 noundef %6)
  ret void
}