; Function Attrs: mustprogress nofree norecurse nosync nounwind willreturn memory(read, argmem: readwrite, inaccessiblemem: none) uwtable
define internal void @_ZN12_GLOBAL__N_122InlineCostCallAnalyzer23onLoadRelativeIntrinsicEv(ptr noundef nonnull align 8 captures(none) dereferenceable(768) %0) unnamed_addr #14 align 2 {
  %2 = load i32, ptr getelementptr inbounds nuw (i8, ptr @_ZL9InstrCost, i64 128), align 8
  %3 = mul nsw i32 %2, 3
  %4 = getelementptr inbounds nuw i8, ptr %0, i64 652
  %5 = load i32, ptr %4, align 4
  %6 = tail call i32 @llvm.sadd.sat.i32(i32 %3, i32 %5)
  store i32 %6, ptr %4, align 4
  ret void
}